; ModuleID = '36/1507.c'
source_filename = "36/1507.c"
target datalayout = "e-m:e-p270:32:32-p271:32:32-p272:64:64-i64:64-f80:128-n8:16:32:64-S128"
target triple = "x86_64-pc-linux-gnu"

@.str = private unnamed_addr constant [6 x i8] c"%s %s\00", align 1
@.str.1 = private unnamed_addr constant [4 x i8] c"YES\00", align 1
@.str.2 = private unnamed_addr constant [3 x i8] c"NO\00", align 1

; Function Attrs: noinline nounwind uwtable
define dso_local i32 @main() #0 {
  %1 = alloca i32, align 4
  %2 = alloca [100 x i8], align 16
  %3 = alloca [100 x i8], align 16
  %4 = alloca [100 x i32], align 16
  %5 = alloca [100 x i32], align 16
  %6 = alloca i32, align 4
  %7 = alloca i32, align 4
  %8 = alloca i32, align 4
  %9 = alloca i32, align 4
  %10 = alloca i32, align 4
  store i32 0, i32* %1, align 4
  store i32 0, i32* %10, align 4
  %11 = call i32 (i8*, ...) @__isoc99_scanf(i8* getelementptr inbounds ([6 x i8], [6 x i8]* @.str, i64 0, i64 0), [100 x i8]* %2, [100 x i8]* %3)
  %12 = getelementptr inbounds [100 x i8], [100 x i8]* %2, i64 0, i64 0
  %13 = call i64 @strlen(i8* %12) #3
  %14 = trunc i64 %13 to i32
  store i32 %14, i32* %6, align 4
  %15 = getelementptr inbounds [100 x i8], [100 x i8]* %3, i64 0, i64 0
  %16 = call i64 @strlen(i8* %15) #3
  %17 = trunc i64 %16 to i32
  store i32 %17, i32* %7, align 4
  store i32 0, i32* %8, align 4
  br label %18

18:                                               ; preds = %28, %0
  %19 = load i32, i32* %8, align 4
  %20 = icmp slt i32 %19, 52
  br i1 %20, label %21, label %31

21:                                               ; preds = %18
  %22 = load i32, i32* %8, align 4
  %23 = sext i32 %22 to i64
  %24 = getelementptr inbounds [100 x i32], [100 x i32]* %4, i64 0, i64 %23
  store i32 0, i32* %24, align 4
  %25 = load i32, i32* %8, align 4
  %26 = sext i32 %25 to i64
  %27 = getelementptr inbounds [100 x i32], [100 x i32]* %5, i64 0, i64 %26
  store i32 0, i32* %27, align 4
  br label %28

28:                                               ; preds = %21
  %29 = load i32, i32* %8, align 4
  %30 = add nsw i32 %29, 1
  store i32 %30, i32* %8, align 4
  br label %18

31:                                               ; preds = %18
  store i32 0, i32* %8, align 4
  br label %32

32:                                               ; preds = %75, %31
  %33 = load i32, i32* %8, align 4
  %34 = load i32, i32* %6, align 4
  %35 = icmp slt i32 %33, %34
  br i1 %35, label %36, label %78

36:                                               ; preds = %32
  %37 = load i32, i32* %8, align 4
  %38 = sext i32 %37 to i64
  %39 = getelementptr inbounds [100 x i8], [100 x i8]* %2, i64 0, i64 %38
  %40 = load i8, i8* %39, align 1
  %41 = sext i8 %40 to i32
  %42 = icmp sge i32 %41, 65
  br i1 %42, label %43, label %62

43:                                               ; preds = %36
  %44 = load i32, i32* %8, align 4
  %45 = sext i32 %44 to i64
  %46 = getelementptr inbounds [100 x i8], [100 x i8]* %2, i64 0, i64 %45
  %47 = load i8, i8* %46, align 1
  %48 = sext i8 %47 to i32
  %49 = icmp sle i32 %48, 90
  br i1 %49, label %50, label %62

50:                                               ; preds = %43
  %51 = load i32, i32* %8, align 4
  %52 = sext i32 %51 to i64
  %53 = getelementptr inbounds [100 x i8], [100 x i8]* %2, i64 0, i64 %52
  %54 = load i8, i8* %53, align 1
  %55 = sext i8 %54 to i32
  %56 = sub nsw i32 %55, 65
  store i32 %56, i32* %9, align 4
  %57 = load i32, i32* %9, align 4
  %58 = sext i32 %57 to i64
  %59 = getelementptr inbounds [100 x i32], [100 x i32]* %4, i64 0, i64 %58
  %60 = load i32, i32* %59, align 4
  %61 = add nsw i32 %60, 1
  store i32 %61, i32* %59, align 4
  br label %74

62:                                               ; preds = %43, %36
  %63 = load i32, i32* %8, align 4
  %64 = sext i32 %63 to i64
  %65 = getelementptr inbounds [100 x i8], [100 x i8]* %2, i64 0, i64 %64
  %66 = load i8, i8* %65, align 1
  %67 = sext i8 %66 to i32
  %68 = sub nsw i32 %67, 71
  store i32 %68, i32* %9, align 4
  %69 = load i32, i32* %9, align 4
  %70 = sext i32 %69 to i64
  %71 = getelementptr inbounds [100 x i32], [100 x i32]* %4, i64 0, i64 %70
  %72 = load i32, i32* %71, align 4
  %73 = add nsw i32 %72, 1
  store i32 %73, i32* %71, align 4
  br label %74

74:                                               ; preds = %62, %50
  br label %75

75:                                               ; preds = %74
  %76 = load i32, i32* %8, align 4
  %77 = add nsw i32 %76, 1
  store i32 %77, i32* %8, align 4
  br label %32

78:                                               ; preds = %32
  store i32 0, i32* %8, align 4
  br label %79

79:                                               ; preds = %122, %78
  %80 = load i32, i32* %8, align 4
  %81 = load i32, i32* %7, align 4
  %82 = icmp slt i32 %80, %81
  br i1 %82, label %83, label %125

83:                                               ; preds = %79
  %84 = load i32, i32* %8, align 4
  %85 = sext i32 %84 to i64
  %86 = getelementptr inbounds [100 x i8], [100 x i8]* %3, i64 0, i64 %85
  %87 = load i8, i8* %86, align 1
  %88 = sext i8 %87 to i32
  %89 = icmp sge i32 %88, 65
  br i1 %89, label %90, label %109

90:                                               ; preds = %83
  %91 = load i32, i32* %8, align 4
  %92 = sext i32 %91 to i64
  %93 = getelementptr inbounds [100 x i8], [100 x i8]* %3, i64 0, i64 %92
  %94 = load i8, i8* %93, align 1
  %95 = sext i8 %94 to i32
  %96 = icmp sle i32 %95, 90
  br i1 %96, label %97, label %109

97:                                               ; preds = %90
  %98 = load i32, i32* %8, align 4
  %99 = sext i32 %98 to i64
  %100 = getelementptr inbounds [100 x i8], [100 x i8]* %3, i64 0, i64 %99
  %101 = load i8, i8* %100, align 1
  %102 = sext i8 %101 to i32
  %103 = sub nsw i32 %102, 65
  store i32 %103, i32* %9, align 4
  %104 = load i32, i32* %9, align 4
  %105 = sext i32 %104 to i64
  %106 = getelementptr inbounds [100 x i32], [100 x i32]* %5, i64 0, i64 %105
  %107 = load i32, i32* %106, align 4
  %108 = add nsw i32 %107, 1
  store i32 %108, i32* %106, align 4
  br label %121

109:                                              ; preds = %90, %83
  %110 = load i32, i32* %8, align 4
  %111 = sext i32 %110 to i64
  %112 = getelementptr inbounds [100 x i8], [100 x i8]* %3, i64 0, i64 %111
  %113 = load i8, i8* %112, align 1
  %114 = sext i8 %113 to i32
  %115 = sub nsw i32 %114, 71
  store i32 %115, i32* %9, align 4
  %116 = load i32, i32* %9, align 4
  %117 = sext i32 %116 to i64
  %118 = getelementptr inbounds [100 x i32], [100 x i32]* %5, i64 0, i64 %117
  %119 = load i32, i32* %118, align 4
  %120 = add nsw i32 %119, 1
  store i32 %120, i32* %118, align 4
  br label %121

121:                                              ; preds = %109, %97
  br label %122

122:                                              ; preds = %121
  %123 = load i32, i32* %8, align 4
  %124 = add nsw i32 %123, 1
  store i32 %124, i32* %8, align 4
  br label %79

125:                                              ; preds = %79
  store i32 0, i32* %8, align 4
  br label %126

126:                                              ; preds = %143, %125
  %127 = load i32, i32* %8, align 4
  %128 = icmp slt i32 %127, 52
  br i1 %128, label %129, label %146

129:                                              ; preds = %126
  %130 = load i32, i32* %8, align 4
  %131 = sext i32 %130 to i64
  %132 = getelementptr inbounds [100 x i32], [100 x i32]* %4, i64 0, i64 %131
  %133 = load i32, i32* %132, align 4
  %134 = load i32, i32* %8, align 4
  %135 = sext i32 %134 to i64
  %136 = getelementptr inbounds [100 x i32], [100 x i32]* %5, i64 0, i64 %135
  %137 = load i32, i32* %136, align 4
  %138 = icmp eq i32 %133, %137
  br i1 %138, label %139, label %142

139:                                              ; preds = %129
  %140 = load i32, i32* %10, align 4
  %141 = add nsw i32 %140, 1
  store i32 %141, i32* %10, align 4
  br label %142

142:                                              ; preds = %139, %129
  br label %143

143:                                              ; preds = %142
  %144 = load i32, i32* %8, align 4
  %145 = add nsw i32 %144, 1
  store i32 %145, i32* %8, align 4
  br label %126

146:                                              ; preds = %126
  %147 = load i32, i32* %10, align 4
  %148 = icmp eq i32 %147, 52
  br i1 %148, label %149, label %151

149:                                              ; preds = %146
  %150 = call i32 (i8*, ...) @printf(i8* getelementptr inbounds ([4 x i8], [4 x i8]* @.str.1, i64 0, i64 0))
  br label %153

151:                                              ; preds = %146
  %152 = call i32 (i8*, ...) @printf(i8* getelementptr inbounds ([3 x i8], [3 x i8]* @.str.2, i64 0, i64 0))
  br label %153

153:                                              ; preds = %151, %149
  ret i32 0
}

declare dso_local i32 @__isoc99_scanf(i8*, ...) #1

; Function Attrs: nounwind readonly
declare dso_local i64 @strlen(i8*) #2

declare dso_local i32 @printf(i8*, ...) #1


!llvm.module.flags = !{!0}
!llvm.ident = !{!1}

!0 = !{i32 1, !"wchar_size", i32 4}
!1 = !{!"clang version 10.0.0-4ubuntu1 "}
